(dp0
S'version'
p1
I1
sS'pages'
p2
(lp3
(dp4
S'showGPLegend'
p5
I01
sS'showSpecControls'
p6
I01
sS'name'
p7
VCity Overview
p8
sS'columns'
p9
(lp10
(S'NAME'
p11
I120
S'text'
p12
tp13
a(S'POPULATION'
p14
I38
S'int'
p15
tp16
a(S'FOOD'
p17
I38
g15
tp18
a(S'GROWTH'
p19
I38
g15
tp20
a(S'HEALTH'
p21
I38
g15
tp22
a(S'HAPPY'
p23
I38
g15
tp24
a(S'PRODUCTION'
p25
I38
g15
tp26
a(S'GOLD'
p27
I38
g15
tp28
a(S'TRADE'
p29
I38
g15
tp30
a(S'MAINTENANCE'
p31
I38
g15
tp32
a(S'RESEARCH'
p33
I38
g15
tp34
a(S'CULTURE'
p35
I52
g15
tp36
a(S'CULTURE_RATE'
p37
I44
g15
tp38
a(S'CULTURE_TURNS'
p39
I44
g15
tp40
a(S'GREATPEOPLE'
p41
I52
S'int'
p42
tp43
a(S'GREATPEOPLE_RATE'
p44
I44
g42
tp45
a(S'GREATPEOPLE_TURNS'
p46
I44
S'int'
p47
tp48
a(S'NUM_SPECIALIST_GG'
p49
I30
S'int'
p50
tp51
a(S'DEFENSE'
p52
I50
g50
tp53
a(S'LIBERATE'
p54
I24
g50
tp55
a(S'POWER'
p56
I24
S'text'
p57
tp58
a(S'PRODUCING'
p59
I200
S'text'
p60
tp61
a(S'PRODUCING_TURNS'
p62
I44
g15
tp63
a(S'HURRY_POP_ANGER'
p64
I38
S'int'
p65
tp66
a(S'HURRY_POP'
p67
I38
g65
tp68
a(S'TRADE'
p69
I30
g65
tp70
a(S'TRADE_DOMESTIC'
p71
I30
g65
tp72
a(S'TRADE_FOREIGN'
p73
I30
g65
tp74
a(S'TRADE_ROUTES'
p75
I30
g65
tp76
a(S'TRADE_ROUTES_DOMESTIC'
p77
I30
g65
tp78
a(S'TRADE_ROUTES_FOREIGN'
p79
I30
g65
tp80
asS'showCultureLegend'
p81
I01
sa(dp82
S'showGPLegend'
p83
I00
sS'showSpecControls'
p84
I00
sS'name'
p85
VCity Details
p86
sS'columns'
p87
(lp88
(S'NAME'
p89
I120
S'text'
p90
tp91
a(S'FEATURES'
p92
I90
g60
tp93
a(S'AUTOMATION'
p94
I134
g60
tp95
a(S'RELIGIONS'
p96
I120
g60
tp97
a(S'CORPORATIONS'
p98
I120
g60
tp99
a(S'SPECIALISTS'
p100
I200
g60
tp101
a(S'BASE_FOOD'
p102
I38
g50
tp103
a(S'BASE_PRODUCTION'
p104
I38
g50
tp105
a(S'BASE_COMMERCE'
p106
I38
g50
tp107
a(S'CAN_HURRY_WHIP'
p108
I42
S'text'
p109
tp110
a(S'HURRY_POP'
p111
I38
S'int'
p112
tp113
a(S'HURRY_POP_EXTRA'
p114
I38
g112
tp115
a(S'HURRY_POP_ANGER'
p116
I38
g50
tp117
a(S'CAN_HURRY_GOLD'
p118
I42
g109
tp119
a(S'HURRY_GOLD'
p120
I44
g112
tp121
asS'showCultureLegend'
p122
I00
sa(dp123
g5
I00
sg6
I00
sg7
VCity Info
p124
sg9
(lp125
(g11
I100
g12
tp126
a(S'FOUNDED'
p127
I78
S'date'
p128
tp129
a(S'POPULATION_REAL'
p130
I74
S'int'
p131
tp132
a(S'LOCATION_X'
p133
I38
g131
tp134
a(S'LOCATION_Y'
p135
I38
g131
tp136
a(S'TRADE_DOMESTIC'
p137
I35
S'int'
p138
tp139
a(S'TRADE_FOREIGN'
p140
I35
g138
tp141
a(S'TRADE_ROUTES'
p142
I35
g138
tp143
a(S'TRADE_ROUTES_DOMESTIC'
p144
I42
g138
tp145
a(S'TRADE_ROUTES_FOREIGN'
p146
I40
g138
tp147
a(S'NRANK_BASE_FOOD'
p148
I40
g131
tp149
a(S'NRANK_FOOD'
p150
I32
g131
tp151
a(S'NRANK_BASE_PRODUCTION'
p152
I40
g131
tp153
a(S'NRANK_PRODUCTION'
p154
I32
g131
tp155
a(S'NRANK_BASE_COMMERCE'
p156
I40
g131
tp157
a(S'NRANK_COMMERCE'
p158
I32
g131
tp159
a(S'NRANK_GOLD'
p160
I32
g131
tp161
a(S'NRANK_RESEARCH'
p162
I32
g131
tp163
a(S'NRANK_CULTURE'
p164
I32
g131
tp165
a(S'GRANK_BASE_FOOD'
p166
I40
g50
tp167
a(S'GRANK_FOOD'
p168
I32
g50
tp169
a(S'GRANK_BASE_PRODUCTION'
p170
I40
g50
tp171
a(S'GRANK_PRODUCTION'
p172
I32
g50
tp173
a(S'GRANK_BASE_COMMERCE'
p174
I40
g50
tp175
a(S'GRANK_COMMERCE'
p176
I32
g50
tp177
a(S'GRANK_GOLD'
p178
I32
g50
tp179
a(S'GRANK_RESEARCH'
p180
I32
g50
tp181
a(S'GRANK_CULTURE'
p182
I32
g50
tp183
asg81
I00
sa(dp184
g5
I00
sg6
I00
sg7
S'Military Overview'
p185
sg9
(lp186
(g11
I120
g12
tp187
a(S'POPULATION'
p188
I45
S'int'
p189
tp190
a(S'DEFENSE'
p191
I60
g42
tp192
a(S'GARRISON'
p193
I30
g42
tp194
a(S'THREATS'
p195
I70
g12
tp196
a(S'FREE_EXPERIENCE_LAND'
p197
I30
g50
tp198
a(S'FREE_EXPERIENCE_SEA'
p199
I30
g50
tp200
a(S'FREE_EXPERIENCE_AIR'
p201
I30
g50
tp202
a(S'ESPIONAGE'
p203
I45
g189
tp204
a(S'ESPIONAGE_DEF'
p205
I45
g189
tp206
a(S'CONSCRIPT_UNIT'
p207
I180
g12
tp208
a(S'COULD_CONSCRIPT_UNIT'
p209
I180
S'text'
p210
tp211
a(S'PRODUCTION'
p212
I42
g189
tp213
a(S'PRODUCING'
p214
I200
g12
tp215
a(S'PRODUCING_TURNS'
p216
I44
g42
tp217
asg81
I00
sa(dp218
S'showGPLegend'
p219
I00
sS'showSpecControls'
p220
I00
sS'name'
p221
VMilitary & Espionage Buildings
p222
sS'columns'
p223
(lp224
(S'NAME'
p225
I120
S'text'
p226
tp227
a(S'DEFENSE'
p228
I60
S'int'
p229
tp230
a(S'BLDGCLASS_BUILDINGCLASS_WALLS'
p231
I22
S'bldg'
p232
tp233
a(S'BLDGCLASS_BUILDINGCLASS_CASTLE'
p234
I22
g232
tp235
a(S'BLDGCLASS_BUILDINGCLASS_STAR_FORT'
p236
I22
S'bldgclass'
p237
tp238
a(S'BLDGCLASS_BUILDINGCLASS_BUNKER'
p239
I22
g232
tp240
a(S'BLDGCLASS_BUILDINGCLASS_BOMB_SHELTER'
p241
I22
g232
tp242
a(S'BLDGCLASS_BUILDINGCLASS_GREAT_WALL'
p243
I22
g232
tp244
a(S'BLDGCLASS_BUILDINGCLASS_THEODOSIAN_WALLS'
p245
I22
g237
tp246
a(S'BLDGCLASS_BUILDINGCLASS_KRAK_DES_CHEVALIERS'
p247
I22
g237
tp248
a(S'BLDGCLASS_BUILDINGCLASS_KREMLIN'
p249
I22
g237
tp250
a(S'FREE_EXPERIENCE_LAND'
p251
I30
S'int'
p252
tp253
a(S'BLDGCLASS_BUILDINGCLASS_BARRACKS'
p254
I22
g232
tp255
a(S'BLDGCLASS_BUILDINGCLASS_STABLE'
p256
I22
g232
tp257
a(S'BLDGCLASS_BUILDINGCLASS_ARMOURY'
p258
I22
g237
tp259
a(S'FREE_EXPERIENCE_SEA'
p260
I30
g252
tp261
a(S'BLDGCLASS_BUILDINGCLASS_DRYDOCK'
p262
I22
g232
tp263
a(S'BLDGCIV_BUILDING_VIKING_TRADING_POST'
p264
I22
S'bldg'
p265
tp266
a(S'BLDGCLASS_BUILDINGCLASS_TRAFALGAR_SQUARE'
p267
I22
g237
tp268
a(S'FREE_EXPERIENCE_AIR'
p269
I30
g252
tp270
a(S'BLDGCLASS_BUILDINGCLASS_AIRPORT'
p271
I22
g232
tp272
a(S'NUM_SPECIALIST_GG'
p273
I30
g252
tp274
a(S'BLDGCLASS_BUILDINGCLASS_MILITARY_ACADEMY'
p275
I22
g232
tp276
a(S'BLDGCLASS_BUILDINGCLASS_FLAVIAN_AMPHITHEATRE'
p277
I22
g237
tp278
a(S'BLDGCLASS_BUILDINGCLASS_VIJAYA_STAMBHA'
p279
I22
g237
tp280
a(S'BLDGCLASS_BUILDINGCLASS_CHAPULTEPEC_CASTLE'
p281
I22
g237
tp282
a(S'BLDGCLASS_BUILDINGCLASS_PENTAGON'
p283
I22
g232
tp284
a(S'BLDGCLASS_BUILDINGCLASS_RED_CROSS'
p285
I22
g232
tp286
a(S'ESPIONAGE'
p287
I45
S'int'
p288
tp289
a(S'ESPIONAGE_DEF'
p290
I45
g288
tp291
a(S'BLDGCLASS_BUILDINGCLASS_JAIL'
p292
I22
S'bldg'
p293
tp294
a(S'BLDGCLASS_BUILDINGCLASS_CONSTABULARY'
p295
I22
g237
tp296
a(S'BLDGCLASS_BUILDINGCLASS_INTELLIGENCE_AGENCY'
p297
I22
g293
tp298
a(S'BLDGCLASS_BUILDINGCLASS_SECURITY_BUREAU'
p299
I22
g237
tp300
a(S'BLDGCLASS_BUILDINGCLASS_PALACE'
p301
I22
g293
tp302
a(S'BLDGCLASS_BUILDINGCLASS_ADMINISTRATIVE_CENTER'
p303
I22
g237
tp304
a(S'BLDGCLASS_BUILDINGCLASS_SECRET_SERVICE'
p305
I22
g237
tp306
a(S'BLDGCLASS_BUILDINGCLASS_ALAMUT'
p307
I22
g237
tp308
a(S'BLDGCLASS_BUILDINGCLASS_LUBYANKA'
p309
I22
g237
tp310
a(S'BLDGCLASS_BUILDINGCLASS_UNITED_NATIONS'
p311
I22
S'bldg'
p312
tp313
asS'showCultureLegend'
p314
I00
sa(dp315
S'showGPLegend'
p316
I00
sS'showSpecControls'
p317
I00
sS'name'
p318
VEconomic Buildings
p319
sS'columns'
p320
(lp321
(S'NAME'
p322
I120
S'text'
p323
tp324
a(S'BASE_COMMERCE'
p325
I38
S'int'
p326
tp327
a(S'GOLD'
p328
I42
g326
tp329
a(S'BLDGCLASS_BUILDINGCLASS_MARKET'
p330
I22
S'bldg'
p331
tp332
a(S'BLDGCLASS_BUILDINGCLASS_BANK'
p333
I22
g331
tp334
a(S'BLDGCLASS_BUILDINGCLASS_WAREHOUSE'
p335
I22
g237
tp336
a(S'BLDGCLASS_BUILDINGCLASS_DEPARTMENT_STORE'
p337
I22
g237
tp338
a(S'BLDGCLASS_BUILDINGCLASS_LOGISTICS_CENTER'
p339
I22
g237
tp340
a(S'BLDGCLASS_BUILDINGCLASS_ELECTRICAL_GRID'
p341
I22
g237
tp342
a(S'BLDGCLASS_BUILDINGCLASS_FIBER_NETWORK'
p343
I22
g237
tp344
a(S'BLDGCLASS_BUILDINGCLASS_STOCK_EXCHANGE'
p345
I22
g237
tp346
a(S'BLDGCLASS_BUILDINGCLASS_CENTRAL_BANK'
p347
I22
g237
tp348
a(S'BLDGCLASS_BUILDINGCLASS_JEWISH_SHRINE'
p349
I22
g237
tp350
a(S'BLDGCLASS_BUILDINGCLASS_PROTESTANT_SHRINE'
p351
I22
g237
tp352
a(S'BLDGCLASS_BUILDINGCLASS_CATHOLIC_SHRINE'
p353
I22
g237
tp354
a(S'BLDGCLASS_BUILDINGCLASS_ORTHODOX_SHRINE'
p355
I22
g237
tp356
a(S'BLDGCLASS_BUILDINGCLASS_ISLAMIC_SHRINE'
p357
I22
g237
tp358
a(S'BLDGCLASS_BUILDINGCLASS_HINDU_SHRINE'
p359
I22
g237
tp360
a(S'BLDGCLASS_BUILDINGCLASS_BUDDHIST_SHRINE'
p361
I22
g237
tp362
a(S'BLDGCLASS_BUILDINGCLASS_CONFUCIAN_SHRINE'
p363
I22
g237
tp364
a(S'BLDGCLASS_BUILDINGCLASS_TAOIST_SHRINE'
p365
I22
g237
tp366
a(S'BLDGCLASS_BUILDINGCLASS_ZOROASTRIAN_SHRINE'
p367
I22
g237
tp368
a(S'BLDGCLASS_BUILDINGCLASS_MACHU_PICCHU'
p369
I22
g237
tp370
a(S'BLDGCLASS_BUILDINGCLASS_SPIRAL_MINARET'
p371
I22
g331
tp372
a(S'BLDGCLASS_BUILDINGCLASS_COLOSSUS'
p373
I22
g331
tp374
a(S'BLDGCLASS_BUILDINGCLASS_GRAND_CANAL'
p375
I22
g237
tp376
a(S'BLDGCLASS_BUILDINGCLASS_MONOLITHIC_CHURCH'
p377
I22
g237
tp378
a(S'BLDGCLASS_BUILDINGCLASS_UNIVERSITY_OF_SANKORE'
p379
I22
g237
tp380
a(S'BLDGCLASS_BUILDINGCLASS_OLD_SYNAGOGUE'
p381
I22
g237
tp382
a(S'BLDGCLASS_BUILDINGCLASS_MENLO_PARK'
p383
I22
g237
tp384
a(S'BLDGCLASS_BUILDINGCLASS_METROPOLITAIN'
p385
I22
g237
tp386
a(S'BLDGCLASS_BUILDINGCLASS_EMPIRE_STATE_BUILDING'
p387
I22
g237
tp388
a(S'BLDGCLASS_BUILDINGCLASS_GOLDEN_GATE_BRIDGE'
p389
I22
g237
tp390
a(S'BLDGCLASS_BUILDINGCLASS_CRYSTAL_CATHEDRAL'
p391
I22
g237
tp392
a(S'BLDGCLASS_BUILDINGCLASS_WORLD_TRADE_CENTER'
p393
I22
g237
tp394
a(S'BLDGCLASS_BUILDINGCLASS_GARDENS_BY_THE_BAY'
p395
I22
g237
tp396
a(S'BLDGCLASS_BUILDINGCLASS_DELTA_WORKS'
p397
I22
g237
tp398
a(S'BLDGCLASS_BUILDINGCLASS_SPACE_ELEVATOR'
p399
I22
g237
tp400
a(S'BLDGCLASS_BUILDINGCLASS_ITER'
p401
I22
g237
tp402
a(S'TRADE'
p403
I38
g326
tp404
a(S'TRADE_DOMESTIC'
p405
I38
g50
tp406
a(S'TRADE_FOREIGN'
p407
I38
g50
tp408
a(S'TRADE_ROUTES'
p409
I38
g50
tp410
a(S'TRADE_ROUTES_DOMESTIC'
p411
I42
g50
tp412
a(S'TRADE_ROUTES_FOREIGN'
p413
I40
g50
tp414
a(S'BLDGCLASS_BUILDINGCLASS_LIGHTHOUSE'
p415
I22
g237
tp416
a(S'BLDGCLASS_BUILDINGCLASS_WHARF'
p417
I22
g237
tp418
a(S'BLDGCLASS_BUILDINGCLASS_POST_OFFICE'
p419
I22
g237
tp420
a(S'BLDGCLASS_BUILDINGCLASS_CUSTOM_HOUSE'
p421
I22
g331
tp422
a(S'BLDGCLASS_BUILDINGCLASS_RAILWAY_STATION'
p423
I22
g237
tp424
a(S'BLDGCLASS_BUILDINGCLASS_CONTAINER_TERMINAL'
p425
I22
g237
tp426
a(S'BLDGCLASS_BUILDINGCLASS_HOTEL'
p427
I22
g237
tp428
a(S'BLDGCLASS_BUILDINGCLASS_MANUFACTORY'
p429
I22
g237
tp430
a(S'BLDGCLASS_BUILDINGCLASS_TRADING_COMPANY'
p431
I22
g237
tp432
a(S'BLDGCLASS_BUILDINGCLASS_TEMPLE_OF_ARTEMIS'
p433
I22
g237
tp434
a(S'BLDGCLASS_BUILDINGCLASS_GREAT_LIGHTHOUSE'
p435
I22
g331
tp436
a(S'BLDGCLASS_BUILDINGCLASS_AL_KHAZNEH'
p437
I22
g237
tp438
a(S'BLDGCLASS_BUILDINGCLASS_TORRE_DE_BELEM'
p439
I22
g237
tp440
a(S'BLDGCLASS_BUILDINGCLASS_SALSAL_BUDDHA'
p441
I22
g237
tp442
a(S'BLDGCLASS_BUILDINGCLASS_IMAGE_OF_THE_WORLD_SQUARE'
p443
I22
g237
tp444
a(S'BLDGCLASS_BUILDINGCLASS_BELL_ROCK_LIGHTHOUSE'
p445
I22
g237
tp446
a(S'BLDGCLASS_BUILDINGCLASS_CHANNEL_TUNNEL'
p447
I22
g237
tp448
a(S'MAINTENANCE'
p449
I38
g326
tp450
a(S'BLDGCLASS_BUILDINGCLASS_PALACE'
p451
I22
g331
tp452
a(S'BLDGCLASS_BUILDINGCLASS_JAIL'
p453
I22
g237
tp454
a(S'BLDGCLASS_BUILDINGCLASS_COURTHOUSE'
p455
I22
g331
tp456
a(g303
I22
g237
tp457
a(S'BLDGCLASS_BUILDINGCLASS_FORBIDDEN_PALACE'
p458
I22
g237
tp459
a(S'CAN_HURRY_GOLD'
p460
I42
g57
tp461
a(S'HURRY_GOLD'
p462
I44
g50
tp463
asS'showCultureLegend'
p464
I00
sa(dp465
S'showGPLegend'
p466
I00
sS'showSpecControls'
p467
I00
sS'name'
p468
VProduction & Power Buildings
p469
sS'columns'
p470
(lp471
(S'NAME'
p472
I120
S'text'
p473
tp474
a(S'BASE_PRODUCTION'
p475
I44
g288
tp476
a(S'PRODUCTION'
p477
I44
g288
tp478
a(S'BLDGCLASS_BUILDINGCLASS_FORGE'
p479
I22
S'bldg'
p480
tp481
a(S'BLDGCLASS_BUILDINGCLASS_FACTORY'
p482
I22
g480
tp483
a(S'BLDGCLASS_BUILDINGCLASS_LEVEE'
p484
I22
S'bldg'
p485
tp486
a(S'BLDGCLASS_BUILDINGCLASS_DRYDOCK'
p487
I22
g480
tp488
a(S'BLDGCLASS_BUILDINGCLASS_INDUSTRIAL_PARK'
p489
I22
S'bldgclass'
p490
tp491
a(S'BLDGCLASS_BUILDINGCLASS_AUTOMATED_FACTORY'
p492
I22
g237
tp493
a(S'BLDGCLASS_BUILDINGCLASS_TERRACOTTA_ARMY'
p494
I22
g237
tp495
a(S'BLDGCLASS_BUILDINGCLASS_IRONWORKS'
p496
I22
g237
tp497
a(S'BLDGCLASS_BUILDINGCLASS_GREAT_COTHON'
p498
I22
g237
tp499
a(S'BLDGCLASS_BUILDINGCLASS_MOAI_STATUES'
p500
I22
g480
tp501
a(g277
I22
g237
tp502
a(S'BLDGCLASS_BUILDINGCLASS_IRON_PILLAR'
p503
I22
g237
tp504
a(S'BLDGCLASS_BUILDINGCLASS_ST_BASILS_CATHEDRAL'
p505
I22
g237
tp506
a(g267
I22
g237
tp507
a(S'BLDGCLASS_BUILDINGCLASS_MOLE_ANTONELLIANA'
p508
I22
g237
tp509
a(S'BLDGCLASS_BUILDINGCLASS_SAGRADA_FAMILIA'
p510
I22
g237
tp511
a(g397
I22
g237
tp512
a(S'BLDGCLASS_BUILDINGCLASS_LABORATORY'
p513
I22
g485
tp514
a(S'BLDGCLASS_BUILDINGCLASS_SPACEPORT'
p515
I22
g237
tp516
a(S'BLDGCLASS_BUILDINGCLASS_SPACE_ELEVATOR'
p517
I22
g485
tp518
a(S'POWER'
p519
I22
S'text'
p520
tp521
a(S'BLDGCLASS_BUILDINGCLASS_COAL_PLANT'
p522
I22
g480
tp523
a(S'BLDGCLASS_BUILDINGCLASS_HYDRO_PLANT'
p524
I22
g480
tp525
a(S'BLDGCLASS_BUILDINGCLASS_NUCLEAR_PLANT'
p526
I22
g480
tp527
a(S'BLDGCLASS_BUILDINGCLASS_SOLAR_PLANT'
p528
I22
g237
tp529
a(S'CAN_HURRY_WHIP'
p530
I42
g57
tp531
a(S'HURRY_POP'
p532
I38
S'int'
p533
tp534
a(S'HURRY_POP_EXTRA'
p535
I38
g533
tp536
a(S'HURRY_POP_ANGER'
p537
I38
g252
tp538
a(g460
I42
g57
tp539
a(S'HURRY_GOLD'
p540
I44
g533
tp541
a(S'PRODUCING'
p542
I200
g520
tp543
a(S'PRODUCING_TURNS'
p544
I44
g288
tp545
asS'showCultureLegend'
p546
I00
sa(dp547
g466
I00
sg467
I00
sg468
VFood & Health Buildings
p548
sg470
(lp549
(g472
I120
g473
tp550
a(S'POPULATION'
p551
I45
g326
tp552
a(S'BASE_FOOD'
p553
I44
g326
tp554
a(S'FOOD'
p555
I44
g326
tp556
a(S'GROWTH'
p557
I44
g326
tp558
a(S'BLDGCLASS_BUILDINGCLASS_GRANARY'
p559
I22
g331
tp560
a(S'BLDGCLASS_BUILDINGCLASS_HARBOR'
p561
I22
g331
tp562
a(S'BLDGCLASS_BUILDINGCLASS_SUPERMARKET'
p563
I22
g331
tp564
a(S'BLDGCLASS_BUILDINGCLASS_VERTICAL_FARM'
p565
I22
g237
tp566
a(S'BLDGCLASS_BUILDINGCLASS_DUJIANGYAN'
p567
I22
g237
tp568
a(S'BLDGCLASS_BUILDINGCLASS_TEMPLE_OF_KUKULKAN'
p569
I22
g237
tp570
a(S'BLDGCLASS_BUILDINGCLASS_FLOATING_GARDENS'
p571
I22
g237
tp572
a(S'BLDGCLASS_BUILDINGCLASS_GONDESHAPUR'
p573
I22
g237
tp574
a(S'BLDGCLASS_BUILDINGCLASS_JETAVANARAMAYA'
p575
I22
g237
tp576
a(S'BLDGCLASS_BUILDINGCLASS_PRAMBANAN'
p577
I22
g237
tp578
a(S'BLDGCLASS_BUILDINGCLASS_KHAJURAHO'
p579
I22
g237
tp580
a(S'BLDGCLASS_BUILDINGCLASS_PORCELAIN_TOWER'
p581
I22
g237
tp582
a(S'BLDGCLASS_BUILDINGCLASS_TSUKIJI'
p583
I22
g237
tp584
a(S'BLDGCLASS_BUILDINGCLASS_LOTUS_TEMPLE'
p585
I22
g237
tp586
a(S'BLDGCLASS_BUILDINGCLASS_SKYTREE'
p587
I22
g237
tp588
a(g397
I22
g237
tp589
a(S'HEALTH'
p590
I44
g326
tp591
a(S'BLDGCLASS_BUILDINGCLASS_SMOKEHOUSE'
p592
I22
g237
tp593
a(S'BLDGCLASS_BUILDINGCLASS_AQUEDUCT'
p594
I22
g331
tp595
a(S'BLDGCLASS_BUILDINGCLASS_BATH'
p596
I22
g237
tp597
a(S'BLDGCLASS_BUILDINGCLASS_PHARMACY'
p598
I22
g237
tp599
a(g417
I22
g237
tp600
a(S'BLDGCLASS_BUILDINGCLASS_SEWER'
p601
I22
g237
tp602
a(S'BLDGCLASS_BUILDINGCLASS_PARK'
p603
I22
g237
tp604
a(S'BLDGCLASS_BUILDINGCLASS_HOSPITAL'
p605
I22
g331
tp606
a(S'BLDGCLASS_BUILDINGCLASS_PUBLIC_TRANSPORTATION'
p607
I22
g331
tp608
a(S'BLDGCLASS_BUILDINGCLASS_FORGE'
p609
I22
g331
tp610
a(S'BLDGCLASS_BUILDINGCLASS_DRYDOCK'
p611
I22
g331
tp612
a(S'BLDGCLASS_BUILDINGCLASS_DISTILLERY'
p613
I22
g237
tp614
a(g423
I22
g237
tp615
a(S'BLDGCLASS_BUILDINGCLASS_AIRPORT'
p616
I22
g331
tp617
a(S'BLDGCLASS_BUILDINGCLASS_LABORATORY'
p618
I22
g331
tp619
a(S'BLDGCLASS_BUILDINGCLASS_FACTORY'
p620
I22
g331
tp621
a(S'BLDGCLASS_BUILDINGCLASS_INDUSTRIAL_PARK'
p622
I22
g331
tp623
a(S'BLDGCLASS_BUILDINGCLASS_COAL_PLANT'
p624
I22
g331
tp625
a(S'BLDGCLASS_BUILDINGCLASS_HYDRO_PLANT'
p626
I22
g331
tp627
a(S'BLDGCLASS_BUILDINGCLASS_NUCLEAR_PLANT'
p628
I22
g331
tp629
a(g528
I22
g237
tp630
a(S'BLDGCLASS_BUILDINGCLASS_RECYCLING_CENTER'
p631
I22
g331
tp632
a(S'BLDGCLASS_BUILDINGCLASS_NATIONAL_PARK'
p633
I22
g331
tp634
a(S'BLDGCLASS_BUILDINGCLASS_HANGING_GARDENS'
p635
I22
g237
tp636
a(S'BLDGCLASS_BUILDINGCLASS_AQUA_APPIA'
p637
I22
g237
tp638
a(S'BLDGCLASS_BUILDINGCLASS_ABBEY_MILLS'
p639
I22
g237
tp640
a(g530
I42
g57
tp641
a(S'HURRY_POP'
p642
I38
g50
tp643
a(S'HURRY_POP_EXTRA'
p644
I38
g50
tp645
a(g116
I38
g50
tp646
asg546
I00
sa(dp647
S'showGPLegend'
p648
I00
sS'showSpecControls'
p649
I00
sS'name'
p650
VHappiness Buildings
p651
sS'columns'
p652
(lp653
(S'NAME'
p654
I120
S'text'
p655
tp656
a(S'POPULATION'
p657
I45
g50
tp658
a(S'HAPPY'
p659
I44
S'int'
p660
tp661
a(g116
I38
g50
tp662
a(g530
I42
g57
tp663
a(S'BLDGCLASS_BUILDINGCLASS_PAGAN_TEMPLE'
p664
I22
g237
tp665
a(S'BLDGCLASS_BUILDINGCLASS_ARENA'
p666
I22
g237
tp667
a(S'BLDGCIV_BUILDING_OTTOMAN_HAMMAM'
p668
I22
g265
tp669
a(S'BLDGCLASS_BUILDINGCLASS_COFFEEHOUSE'
p670
I22
g237
tp671
a(g603
I22
g237
tp672
a(S'BLDGCLASS_BUILDINGCLASS_CINEMA'
p673
I22
g237
tp674
a(S'BLDGCLASS_BUILDINGCLASS_BROADCAST_TOWER'
p675
I22
g237
tp676
a(S'BLDGCLASS_BUILDINGCLASS_JEWISH_TEMPLE'
p677
I22
g237
tp678
a(S'BLDGCLASS_BUILDINGCLASS_JEWISH_CATHEDRAL'
p679
I22
g237
tp680
a(S'BLDGCLASS_BUILDINGCLASS_PROTESTANT_TEMPLE'
p681
I22
g237
tp682
a(S'BLDGCLASS_BUILDINGCLASS_PROTESTANT_CATHEDRAL'
p683
I22
g237
tp684
a(S'BLDGCLASS_BUILDINGCLASS_CATHOLIC_TEMPLE'
p685
I22
g237
tp686
a(S'BLDGCLASS_BUILDINGCLASS_CATHOLIC_CATHEDRAL'
p687
I22
g237
tp688
a(S'BLDGCLASS_BUILDINGCLASS_ORTHODOX_TEMPLE'
p689
I22
g237
tp690
a(S'BLDGCLASS_BUILDINGCLASS_ORTHODOX_CATHEDRAL'
p691
I22
g237
tp692
a(S'BLDGCLASS_BUILDINGCLASS_ISLAMIC_TEMPLE'
p693
I22
g237
tp694
a(S'BLDGCLASS_BUILDINGCLASS_ISLAMIC_CATHEDRAL'
p695
I22
g237
tp696
a(S'BLDGCLASS_BUILDINGCLASS_HINDU_TEMPLE'
p697
I22
g237
tp698
a(S'BLDGCLASS_BUILDINGCLASS_HINDU_CATHEDRAL'
p699
I22
g237
tp700
a(S'BLDGCLASS_BUILDINGCLASS_BUDDHIST_TEMPLE'
p701
I22
g237
tp702
a(S'BLDGCLASS_BUILDINGCLASS_BUDDHIST_CATHEDRAL'
p703
I22
g237
tp704
a(S'BLDGCLASS_BUILDINGCLASS_CONFUCIAN_TEMPLE'
p705
I22
g237
tp706
a(S'BLDGCLASS_BUILDINGCLASS_CONFUCIAN_CATHEDRAL'
p707
I22
g237
tp708
a(S'BLDGCLASS_BUILDINGCLASS_TAOIST_TEMPLE'
p709
I22
g237
tp710
a(S'BLDGCLASS_BUILDINGCLASS_TAOIST_CATHEDRAL'
p711
I22
g237
tp712
a(S'BLDGCLASS_BUILDINGCLASS_ZOROASTRIAN_TEMPLE'
p713
I22
g237
tp714
a(S'BLDGCLASS_BUILDINGCLASS_ZOROASTRIAN_CATHEDRAL'
p715
I22
g237
tp716
a(S'BLDGCLASS_BUILDINGCLASS_NATIONAL_THEATRE'
p717
I22
g237
tp718
a(S'BLDGCLASS_BUILDINGCLASS_SAINT_THOMAS_CHURCH'
p719
I22
g237
tp720
a(S'BLDGCLASS_BUILDINGCLASS_EMERALD_BUDDHA'
p721
I22
g237
tp722
a(S'BLDGCLASS_BUILDINGCLASS_HOLLYWOOD'
p723
I22
g312
tp724
a(S'BLDGCLASS_BUILDINGCLASS_WEMBLEY'
p725
I22
g237
tp726
a(S'BLDGCLASS_BUILDINGCLASS_GRACELAND'
p727
I22
g237
tp728
a(S'BLDGCLASS_BUILDINGCLASS_BARRACKS'
p729
I22
S'bldg'
p730
tp731
a(S'BLDGCLASS_BUILDINGCLASS_THEATRE'
p732
I22
g730
tp733
a(S'BLDGCLASS_BUILDINGCLASS_WEAVER'
p734
I22
g237
tp735
a(S'BLDGCLASS_BUILDINGCLASS_MARKET'
p736
I22
g730
tp737
a(S'BLDGCLASS_BUILDINGCLASS_FORGE'
p738
I22
g730
tp739
a(S'BLDGCLASS_BUILDINGCLASS_NEWS_PRESS'
p740
I22
g237
tp741
a(S'BLDGCIV_BUILDING_AMERICAN_MALL'
p742
I22
g265
tp743
a(S'BLDGCLASS_BUILDINGCLASS_STADIUM'
p744
I22
g237
tp745
a(S'BLDGCLASS_BUILDINGCLASS_PALACE'
p746
I22
g312
tp747
a(S'BLDGCIV_BUILDING_AZTEC_SACRIFICIAL_ALTAR'
p748
I22
g265
tp749
a(g295
I22
g237
tp750
a(S'BLDGCLASS_BUILDINGCLASS_BLUE_MOSQUE'
p751
I22
g237
tp752
asS'showCultureLegend'
p753
I00
sa(dp754
S'showGPLegend'
p755
I00
sS'showSpecControls'
p756
I00
sS'name'
p757
VResearch Buildings
p758
sS'columns'
p759
(lp760
(S'NAME'
p761
I120
S'text'
p762
tp763
a(S'RESEARCH'
p764
I44
g326
tp765
a(S'BLDGCLASS_BUILDINGCLASS_LIBRARY'
p766
I22
g331
tp767
a(S'BLDGCLASS_BUILDINGCLASS_UNIVERSITY'
p768
I22
g331
tp769
a(S'BLDGCLASS_BUILDINGCLASS_OBSERVATORY'
p770
I22
g331
tp771
a(g618
I22
g331
tp772
a(g598
I22
g237
tp773
a(S'BLDGCLASS_BUILDINGCLASS_SUPERCOMPUTER'
p774
I22
g237
tp775
a(S'BLDGCLASS_BUILDINGCLASS_JEWISH_MONASTERY'
p776
I22
g237
tp777
a(S'BLDGCLASS_BUILDINGCLASS_PROTESTANT_MONASTERY'
p778
I22
g237
tp779
a(S'BLDGCLASS_BUILDINGCLASS_CATHOLIC_MONASTERY'
p780
I22
g237
tp781
a(S'BLDGCLASS_BUILDINGCLASS_ORTHODOX_MONASTERY'
p782
I22
g237
tp783
a(S'BLDGCLASS_BUILDINGCLASS_ISLAMIC_MONASTERY'
p784
I22
g237
tp785
a(S'BLDGCLASS_BUILDINGCLASS_HINDU_MONASTERY'
p786
I22
g237
tp787
a(S'BLDGCLASS_BUILDINGCLASS_BUDDHIST_MONASTERY'
p788
I22
g237
tp789
a(S'BLDGCLASS_BUILDINGCLASS_CONFUCIAN_MONASTERY'
p790
I22
g237
tp791
a(S'BLDGCLASS_BUILDINGCLASS_TAOIST_MONASTERY'
p792
I22
g237
tp793
a(S'BLDGCLASS_BUILDINGCLASS_ZOROASTRIAN_MONASTERY'
p794
I22
g237
tp795
a(S'BLDGCLASS_BUILDINGCLASS_ACADEMY'
p796
I22
g237
tp797
a(S'BLDGCLASS_BUILDINGCLASS_ORACLE'
p798
I22
g237
tp799
a(S'BLDGCLASS_BUILDINGCLASS_NATIONAL_COLLEGE'
p800
I22
g237
tp801
a(S'BLDGCLASS_BUILDINGCLASS_GREAT_LIBRARY'
p802
I22
g237
tp803
a(g573
I22
g237
tp804
a(S'BLDGCLASS_BUILDINGCLASS_NALANDA'
p805
I22
g237
tp806
a(S'BLDGCLASS_BUILDINGCLASS_CHEOMSEONGDAE'
p807
I22
g237
tp808
a(S'BLDGCLASS_BUILDINGCLASS_HOUSE_OF_WISDOM'
p809
I22
g237
tp810
a(S'BLDGCLASS_BUILDINGCLASS_OXFORD_UNIVERSITY'
p811
I22
g237
tp812
a(S'BLDGCLASS_BUILDINGCLASS_CERN_RESEARCH_COMPLEX'
p813
I22
g237
tp814
a(S'BLDGCLASS_BUILDINGCLASS_ATOMIUM'
p815
I22
g237
tp816
a(S'BLDGCLASS_BUILDINGCLASS_GLOBAL_SEED_VAULT'
p817
I22
g237
tp818
a(S'BLDGCLASS_BUILDINGCLASS_HUBBLE_SPACE_TELESCOPE'
p819
I22
g237
tp820
a(g587
I22
g237
tp821
a(S'BLDGCLASS_BUILDINGCLASS_ORIENTAL_PEARL_TOWER'
p822
I22
g237
tp823
asS'showCultureLegend'
p824
I00
sa(dp825
g648
I01
sg649
I01
sg650
VSpecialists Buildings
p826
sg652
(lp827
(g654
I100
g655
tp828
a(S'BLDGCIV_BUILDING_EGYPTIAN_OBELISK'
p829
I22
g265
tp830
a(g677
I22
g237
tp831
a(g679
I22
g237
tp832
a(g681
I22
g237
tp833
a(g683
I22
g237
tp834
a(g685
I22
g237
tp835
a(g687
I22
g237
tp836
a(g689
I22
g237
tp837
a(g691
I22
g237
tp838
a(g693
I22
g237
tp839
a(g695
I22
g237
tp840
a(g697
I22
g237
tp841
a(g699
I22
g237
tp842
a(g701
I22
g237
tp843
a(g703
I22
g237
tp844
a(g705
I22
g237
tp845
a(g707
I22
g237
tp846
a(g709
I22
g237
tp847
a(g711
I22
g237
tp848
a(g713
I22
g237
tp849
a(g715
I22
g237
tp850
a(S'BLDGCLASS_BUILDINGCLASS_BOROBUDUR'
p851
I22
g237
tp852
a(S'BLDGCLASS_BUILDINGCLASS_THEATRE'
p853
I22
S'bldg'
p854
tp855
a(g734
I22
g237
tp856
a(S'BLDGCLASS_BUILDINGCLASS_BROADCAST_TOWER'
p857
I22
g854
tp858
a(S'BLDGCLASS_BUILDINGCLASS_NATIONAL_GALLERY'
p859
I22
g237
tp860
a(S'BLDGCLASS_BUILDINGCLASS_LOUVRE'
p861
I22
g237
tp862
a(S'BLDGCLASS_BUILDINGCLASS_LIBRARY'
p863
I22
g854
tp864
a(g598
I22
g237
tp865
a(S'BLDGCLASS_BUILDINGCLASS_OBSERVATORY'
p866
I22
g854
tp867
a(S'BLDGCLASS_BUILDINGCLASS_LABORATORY'
p868
I22
g854
tp869
a(S'BLDGCLASS_BUILDINGCLASS_NUCLEAR_PLANT'
p870
I22
g237
tp871
a(g774
I22
g237
tp872
a(g800
I22
g237
tp873
a(S'BLDGCLASS_BUILDINGCLASS_GREAT_LIBRARY'
p874
I22
g854
tp875
a(S'BLDGCLASS_BUILDINGCLASS_MARKET'
p876
I22
g854
tp877
a(S'BLDGCLASS_BUILDINGCLASS_BANK'
p878
I22
g237
tp879
a(g335
I22
g237
tp880
a(g339
I22
g237
tp881
a(g347
I22
g237
tp882
a(S'BLDGCLASS_BUILDINGCLASS_BOURSE'
p883
I22
g237
tp884
a(S'BLDGCLASS_BUILDINGCLASS_FORGE'
p885
I22
g854
tp886
a(S'BLDGCLASS_BUILDINGCLASS_FACTORY'
p887
I22
g854
tp888
a(g423
I22
g237
tp889
a(S'BLDGCLASS_BUILDINGCLASS_INDUSTRIAL_PARK'
p890
I22
g854
tp891
a(g492
I22
g237
tp892
a(g496
I22
g237
tp893
a(S'BLDGCLASS_BUILDINGCLASS_CIVIC_SQUARE'
p894
I22
g237
tp895
a(S'BLDGCLASS_BUILDINGCLASS_ESTATE'
p896
I22
g237
tp897
a(S'BLDGCLASS_BUILDINGCLASS_COURTHOUSE'
p898
I22
g854
tp899
a(g740
I22
g237
tp900
a(S'BLDGCLASS_BUILDINGCLASS_VERSAILLES'
p901
I22
g237
tp902
a(S'BLDGCLASS_BUILDINGCLASS_ISHTAR_GATE'
p903
I22
g237
tp904
a(S'BLDGCLASS_BUILDINGCLASS_LA_MEZQUITA'
p905
I22
g237
tp906
a(S'BLDGCLASS_BUILDINGCLASS_STATUE_OF_LIBERTY'
p907
I22
g854
tp908
a(S'BLDGCLASS_BUILDINGCLASS_BERLAYMONT'
p909
I22
g237
tp910
a(g49
I32
g50
tp911
asg753
I01
sa(dp912
S'showGPLegend'
p913
I01
sS'showSpecControls'
p914
I01
sS'name'
p915
VCulture & GP Buildings
p916
sS'columns'
p917
(lp918
(S'NAME'
p919
I90
S'text'
p920
tp921
a(S'CULTURE'
p922
I52
g50
tp923
a(S'CULTURE_RATE'
p924
I44
S'int'
p925
tp926
a(S'CULTURE_TURNS'
p927
I44
g50
tp928
a(S'GREATPEOPLE'
p929
I52
g50
tp930
a(S'GREATPEOPLE_RATE'
p931
I44
g925
tp932
a(S'GREATPEOPLE_TURNS'
p933
I44
g50
tp934
a(g664
I22
g237
tp935
a(S'BLDGCLASS_BUILDINGCLASS_MONUMENT'
p936
I22
g237
tp937
a(g863
I22
g854
tp938
a(g853
I22
g854
tp939
a(g734
I22
g237
tp940
a(g596
I22
g237
tp941
a(S'BLDGCLASS_BUILDINGCLASS_CASTLE'
p942
I22
g854
tp943
a(g894
I22
g237
tp944
a(S'BLDGCLASS_BUILDINGCLASS_UNIVERSITY'
p945
I22
g854
tp946
a(g896
I22
g237
tp947
a(g740
I22
g237
tp948
a(g673
I22
g237
tp949
a(g675
I22
g237
tp950
a(g744
I22
g237
tp951
a(S'BLDGCLASS_BUILDINGCLASS_PALACE'
p952
I22
g237
tp953
a(g717
I22
g237
tp954
a(g859
I22
g237
tp955
a(S'BLDGCLASS_BUILDINGCLASS_NATIONAL_MONUMENT'
p956
I22
g237
tp957
asS'showCultureLegend'
p958
I01
sa(dp959
S'showGPLegend'
p960
I00
sS'showSpecControls'
p961
I00
sS'name'
p962
VWorld Wonders (more Culture & GP B.)
p963
sS'columns'
p964
(lp965
(S'NAME'
p966
I120
S'text'
p967
tp968
a(g922
I52
g50
tp969
a(S'CULTURE_RATE'
p970
I44
g50
tp971
a(g927
I44
g50
tp972
a(g929
I52
g50
tp973
a(S'GREATPEOPLE_RATE'
p974
I44
g50
tp975
a(g933
I44
g50
tp976
a(S'BLDGCLASS_BUILDINGCLASS_GREAT_SPHINX'
p977
I22
g237
tp978
a(S'BLDGCLASS_BUILDINGCLASS_PYRAMIDS'
p979
I22
g237
tp980
a(g798
I22
g237
tp981
a(S'BLDGCLASS_BUILDINGCLASS_GREAT_WALL'
p982
I22
g237
tp983
a(g903
I22
g237
tp984
a(g494
I22
g237
tp985
a(g635
I22
g237
tp986
a(g498
I22
g237
tp987
a(g567
I22
g237
tp988
a(S'BLDGCLASS_BUILDINGCLASS_APADANA_PALACE'
p989
I22
g237
tp990
a(S'BLDGCLASS_BUILDINGCLASS_COLOSSUS'
p991
I22
g237
tp992
a(S'BLDGCLASS_BUILDINGCLASS_STATUE_OF_ZEUS'
p993
I22
g237
tp994
a(S'BLDGCLASS_BUILDINGCLASS_GREAT_MAUSOLEUM'
p995
I22
g237
tp996
a(S'BLDGCLASS_BUILDINGCLASS_PARTHENON'
p997
I22
g237
tp998
a(g433
I22
g237
tp999
a(S'BLDGCLASS_BUILDINGCLASS_GREAT_LIGHTHOUSE'
p1000
I22
g237
tp1001
a(S'BLDGCLASS_BUILDINGCLASS_MOAI_STATUES'
p1002
I22
g237
tp1003
a(g277
I22
g237
tp1004
a(g637
I22
g237
tp1005
a(g437
I22
g237
tp1006
a(g569
I22
g237
tp1007
a(g369
I22
g237
tp1008
a(g802
I22
g237
tp1009
a(g571
I22
g237
tp1010
a(g573
I22
g237
tp1011
a(g575
I22
g237
tp1012
a(g805
I22
g237
tp1013
a(g245
I22
g237
tp1014
a(S'BLDGCLASS_BUILDINGCLASS_HAGIA_SOPHIA'
p1015
I22
g237
tp1016
a(g851
I22
g237
tp1017
a(g905
I22
g237
tp1018
a(S'BLDGCLASS_BUILDINGCLASS_SHWEDAGON_PAYA'
p1019
I22
g237
tp1020
a(S'BLDGCLASS_BUILDINGCLASS_MOUNT_ATHOS'
p1021
I22
g237
tp1022
a(g503
I22
g237
tp1023
a(g577
I22
g237
tp1024
a(g441
I22
g237
tp1025
a(g807
I22
g237
tp1026
a(S'BLDGCLASS_BUILDINGCLASS_HIMEJI_CASTLE'
p1027
I22
g237
tp1028
a(g375
I22
g237
tp1029
a(S'BLDGCLASS_BUILDINGCLASS_WAT_PREAH_PISNULOK'
p1030
I22
g237
tp1031
a(g579
I22
g237
tp1032
a(S'BLDGCLASS_BUILDINGCLASS_SPIRAL_MINARET'
p1033
I22
g237
tp1034
a(S'BLDGCLASS_BUILDINGCLASS_DOME_OF_THE_ROCK'
p1035
I22
g237
tp1036
a(g809
I22
g237
tp1037
a(g247
I22
g237
tp1038
a(g377
I22
g237
tp1039
a(g379
I22
g237
tp1040
a(S'BLDGCLASS_BUILDINGCLASS_NOTRE_DAME'
p1041
I22
g237
tp1042
a(g381
I22
g237
tp1043
a(S'BLDGCLASS_BUILDINGCLASS_SAINT_SOPHIA'
p1044
I22
g237
tp1045
a(S'BLDGCLASS_BUILDINGCLASS_SILVER_TREE_FOUNTAIN'
p1046
I22
g237
tp1047
a(S'BLDGCLASS_BUILDINGCLASS_SANTA_MARIA_DEL_FIORE'
p1048
I22
g237
tp1049
a(g307
I22
g237
tp1050
a(S'BLDGCLASS_BUILDINGCLASS_SAN_MARCO_BASILICA'
p1051
I22
g237
tp1052
a(S'BLDGCLASS_BUILDINGCLASS_SISTINE_CHAPEL'
p1053
I22
g237
tp1054
a(g581
I22
g237
tp1055
a(S'BLDGCLASS_BUILDINGCLASS_TOPKAPI_PALACE'
p1056
I22
g237
tp1057
a(g249
I22
g237
tp1058
a(g719
I22
g237
tp1059
a(g279
I22
g237
tp1060
a(S'BLDGCLASS_BUILDINGCLASS_GUR_E_AMIR'
p1061
I22
g237
tp1062
a(S'BLDGCLASS_BUILDINGCLASS_RED_FORT'
p1063
I22
g237
tp1064
a(S'BLDGCLASS_BUILDINGCLASS_TAJ_MAHAL'
p1065
I22
g237
tp1066
a(g458
I22
g237
tp1067
a(g901
I22
g237
tp1068
a(g751
I22
g237
tp1069
a(S'BLDGCLASS_BUILDINGCLASS_ESCORIAL'
p1070
I22
g237
tp1071
a(g439
I22
g237
tp1072
a(S'BLDGCLASS_BUILDINGCLASS_POTALA_PALACE'
p1073
I22
g237
tp1074
a(g811
I22
g237
tp1075
a(S'BLDGCLASS_BUILDINGCLASS_HARMANDIR_SAHIB'
p1076
I22
g237
tp1077
a(g505
I22
g237
tp1078
a(g883
I22
g237
tp1079
a(S'BLDGCLASS_BUILDINGCLASS_ITSUKUSHIMA_SHRINE'
p1080
I22
g237
tp1081
a(g443
I22
g237
tp1082
a(g861
I22
g237
tp1083
a(g721
I22
g237
tp1084
a(S'BLDGCLASS_BUILDINGCLASS_SHALIMAR_GARDENS'
p1085
I22
g237
tp1086
a(g267
I22
g237
tp1087
a(S'BLDGCLASS_BUILDINGCLASS_HERMITAGE'
p1088
I22
g237
tp1089
a(S'BLDGCLASS_BUILDINGCLASS_GUADALUPE_BASILICA'
p1090
I22
g237
tp1091
a(S'BLDGCLASS_BUILDINGCLASS_SALT_CATHEDRAL'
p1092
I22
g237
tp1093
a(S'BLDGCLASS_BUILDINGCLASS_AMBER_ROOM'
p1094
I22
g237
tp1095
a(S'BLDGCLASS_BUILDINGCLASS_STATUE_OF_LIBERTY'
p1096
I22
g237
tp1097
a(S'BLDGCLASS_BUILDINGCLASS_BRANDENBURG_GATE'
p1098
I22
g237
tp1099
a(g639
I22
g237
tp1100
a(g445
I22
g237
tp1101
a(g281
I22
g237
tp1102
a(S'BLDGCLASS_BUILDINGCLASS_EIFFEL_TOWER'
p1103
I22
g237
tp1104
a(S'BLDGCLASS_BUILDINGCLASS_WESTMINSTER_PALACE'
p1105
I22
g237
tp1106
a(S'BLDGCLASS_BUILDINGCLASS_TRIUMPHAL_ARCH'
p1107
I22
g237
tp1108
a(g383
I22
g237
tp1109
a(S'BLDGCLASS_BUILDINGCLASS_CRYSTAL_PALACE'
p1110
I22
g237
tp1111
a(g583
I22
g237
tp1112
a(S'BLDGCLASS_BUILDINGCLASS_BROOKLYN_BRIDGE'
p1113
I22
g237
tp1114
a(S'BLDGCLASS_BUILDINGCLASS_HOLLYWOOD'
p1115
I22
g237
tp1116
a(g387
I22
g237
tp1117
a(S'BLDGCLASS_BUILDINGCLASS_LAS_LAJAS_SANCTUARY'
p1118
I22
g237
tp1119
a(S'BLDGCLASS_BUILDINGCLASS_PALACE_OF_NATIONS'
p1120
I22
g237
tp1121
a(g508
I22
g237
tp1122
a(S'BLDGCLASS_BUILDINGCLASS_NEUSCHWANSTEIN'
p1123
I22
g237
tp1124
a(S'BLDGCLASS_BUILDINGCLASS_FRONTENAC'
p1125
I22
g237
tp1126
a(g725
I22
g237
tp1127
a(g309
I22
g237
tp1128
a(S'BLDGCLASS_BUILDINGCLASS_CRISTO_REDENTOR'
p1129
I22
g237
tp1130
a(g385
I22
g237
tp1131
a(S'BLDGCLASS_BUILDINGCLASS_NOBEL_PRIZE'
p1132
I22
g237
tp1133
a(g389
I22
g237
tp1134
a(S'BLDGCLASS_BUILDINGCLASS_BLETCHLEY_PARK'
p1135
I22
g237
tp1136
a(g510
I22
g237
tp1137
a(g813
I22
g237
tp1138
a(S'BLDGCLASS_BUILDINGCLASS_ITAIPU_DAM'
p1139
I22
g237
tp1140
a(g727
I22
g237
tp1141
a(S'BLDGCLASS_BUILDINGCLASS_CN_TOWER'
p1142
I22
g237
tp1143
a(S'BLDGCLASS_BUILDINGCLASS_PENTAGON'
p1144
I22
g237
tp1145
a(S'BLDGCLASS_BUILDINGCLASS_UNITED_NATIONS'
p1146
I22
g237
tp1147
a(g391
I22
g237
tp1148
a(S'BLDGCLASS_BUILDINGCLASS_MOTHERLAND_CALLS'
p1149
I22
g237
tp1150
a(g909
I22
g237
tp1151
a(g393
I22
g237
tp1152
a(g815
I22
g237
tp1153
a(S'BLDGCLASS_BUILDINGCLASS_IRON_DOME'
p1154
I22
g237
tp1155
a(S'BLDGCLASS_BUILDINGCLASS_HARBOUR_OPERA'
p1156
I22
g237
tp1157
a(g585
I22
g237
tp1158
a(g817
I22
g237
tp1159
a(g395
I22
g237
tp1160
a(S'BLDGCLASS_BUILDINGCLASS_BURJ_KHALIFA'
p1161
I22
g237
tp1162
a(g819
I22
g237
tp1163
a(g447
I22
g237
tp1164
a(g587
I22
g237
tp1165
a(g822
I22
g237
tp1166
a(g397
I22
g237
tp1167
a(g399
I22
g237
tp1168
a(S'BLDGCLASS_BUILDINGCLASS_LARGE_HADRON_COLLIDER'
p1169
I22
g237
tp1170
a(g401
I22
g237
tp1171
asS'showCultureLegend'
p1172
I00
sa(dp1173
g960
I00
sg961
I00
sg962
VReligious Buildings (more Culture B.)
p1174
sg964
(lp1175
(g966
I120
g967
tp1176
a(S'RELIGIONS'
p1177
I120
S'text'
p1178
tp1179
a(S'BLDGCLASS_BUILDINGCLASS_JEWISH_TEMPLE'
p1180
I22
S'bldgclass'
p1181
tp1182
a(S'BLDGCLASS_BUILDINGCLASS_JEWISH_CATHEDRAL'
p1183
I22
g1181
tp1184
a(S'BLDGCLASS_BUILDINGCLASS_JEWISH_MONASTERY'
p1185
I22
g1181
tp1186
a(S'BLDGCLASS_BUILDINGCLASS_JEWISH_SHRINE'
p1187
I22
g1181
tp1188
a(S'BLDGCLASS_BUILDINGCLASS_PROTESTANT_TEMPLE'
p1189
I22
g1181
tp1190
a(S'BLDGCLASS_BUILDINGCLASS_PROTESTANT_CATHEDRAL'
p1191
I22
g1181
tp1192
a(S'BLDGCLASS_BUILDINGCLASS_PROTESTANT_MONASTERY'
p1193
I22
g1181
tp1194
a(S'BLDGCLASS_BUILDINGCLASS_PROTESTANT_SHRINE'
p1195
I22
g1181
tp1196
a(S'BLDGCLASS_BUILDINGCLASS_CATHOLIC_TEMPLE'
p1197
I22
g1181
tp1198
a(S'BLDGCLASS_BUILDINGCLASS_CATHOLIC_CATHEDRAL'
p1199
I22
g1181
tp1200
a(S'BLDGCLASS_BUILDINGCLASS_CATHOLIC_MONASTERY'
p1201
I22
g1181
tp1202
a(S'BLDGCLASS_BUILDINGCLASS_CATHOLIC_SHRINE'
p1203
I22
g1181
tp1204
a(S'BLDGCLASS_BUILDINGCLASS_ORTHODOX_TEMPLE'
p1205
I22
g1181
tp1206
a(S'BLDGCLASS_BUILDINGCLASS_ORTHODOX_CATHEDRAL'
p1207
I22
g1181
tp1208
a(S'BLDGCLASS_BUILDINGCLASS_ORTHODOX_MONASTERY'
p1209
I22
g1181
tp1210
a(S'BLDGCLASS_BUILDINGCLASS_ORTHODOX_SHRINE'
p1211
I22
g1181
tp1212
a(S'BLDGCLASS_BUILDINGCLASS_ISLAMIC_TEMPLE'
p1213
I22
g1181
tp1214
a(S'BLDGCLASS_BUILDINGCLASS_ISLAMIC_CATHEDRAL'
p1215
I22
g1181
tp1216
a(S'BLDGCLASS_BUILDINGCLASS_ISLAMIC_MONASTERY'
p1217
I22
g1181
tp1218
a(S'BLDGCLASS_BUILDINGCLASS_ISLAMIC_SHRINE'
p1219
I22
g1181
tp1220
a(S'BLDGCLASS_BUILDINGCLASS_HINDU_TEMPLE'
p1221
I22
g1181
tp1222
a(S'BLDGCLASS_BUILDINGCLASS_HINDU_CATHEDRAL'
p1223
I22
g1181
tp1224
a(S'BLDGCLASS_BUILDINGCLASS_HINDU_MONASTERY'
p1225
I22
g1181
tp1226
a(S'BLDGCLASS_BUILDINGCLASS_HINDU_SHRINE'
p1227
I22
g1181
tp1228
a(S'BLDGCLASS_BUILDINGCLASS_BUDDHIST_TEMPLE'
p1229
I22
g1181
tp1230
a(S'BLDGCLASS_BUILDINGCLASS_BUDDHIST_CATHEDRAL'
p1231
I22
g1181
tp1232
a(S'BLDGCLASS_BUILDINGCLASS_BUDDHIST_MONASTERY'
p1233
I22
g1181
tp1234
a(S'BLDGCLASS_BUILDINGCLASS_BUDDHIST_SHRINE'
p1235
I22
g1181
tp1236
a(S'BLDGCLASS_BUILDINGCLASS_CONFUCIAN_TEMPLE'
p1237
I22
g1181
tp1238
a(S'BLDGCLASS_BUILDINGCLASS_CONFUCIAN_CATHEDRAL'
p1239
I22
g1181
tp1240
a(S'BLDGCLASS_BUILDINGCLASS_CONFUCIAN_MONASTERY'
p1241
I22
g1181
tp1242
a(S'BLDGCLASS_BUILDINGCLASS_CONFUCIAN_SHRINE'
p1243
I22
g1181
tp1244
a(S'BLDGCLASS_BUILDINGCLASS_TAOIST_TEMPLE'
p1245
I22
g1181
tp1246
a(S'BLDGCLASS_BUILDINGCLASS_TAOIST_CATHEDRAL'
p1247
I22
g1181
tp1248
a(S'BLDGCLASS_BUILDINGCLASS_TAOIST_MONASTERY'
p1249
I22
g1181
tp1250
a(S'BLDGCLASS_BUILDINGCLASS_TAOIST_SHRINE'
p1251
I22
g1181
tp1252
a(S'BLDGCLASS_BUILDINGCLASS_ZOROASTRIAN_TEMPLE'
p1253
I22
g1181
tp1254
a(S'BLDGCLASS_BUILDINGCLASS_ZOROASTRIAN_CATHEDRAL'
p1255
I22
g1181
tp1256
a(S'BLDGCLASS_BUILDINGCLASS_ZOROASTRIAN_MONASTERY'
p1257
I22
g1181
tp1258
a(S'BLDGCLASS_BUILDINGCLASS_ZOROASTRIAN_SHRINE'
p1259
I22
g1181
tp1260
a(S'HAPPY'
p1261
I44
S'int'
p1262
tp1263
a(S'CULTURE'
p1264
I52
g326
tp1265
a(g970
I44
g50
tp1266
a(g927
I44
g50
tp1267
asg1172
I00
sa(dp1268
g960
I00
sg961
I00
sg962
VResources
p1269
sg964
(lp1270
(g966
I120
g967
tp1271
a(S'HAS_BONUS_ALUMINUM'
p1272
I24
S'bonus'
p1273
tp1274
a(S'HAS_BONUS_COAL'
p1275
I24
g1273
tp1276
a(S'HAS_BONUS_COPPER'
p1277
I24
g1273
tp1278
a(S'HAS_BONUS_IRON'
p1279
I24
g1273
tp1280
a(S'HAS_BONUS_URANIUM'
p1281
I24
g1273
tp1282
a(S'HAS_BONUS_MARBLE'
p1283
I24
g1273
tp1284
a(S'HAS_BONUS_STONE'
p1285
I24
g1273
tp1286
a(S'HAS_BONUS_CAMEL'
p1287
I24
S'bonus'
p1288
tp1289
a(S'HAS_BONUS_HORSE'
p1290
I24
g1273
tp1291
a(S'HAS_BONUS_OIL'
p1292
I24
g1273
tp1293
a(S'HAS_BONUS_DEER'
p1294
I24
g1273
tp1295
a(S'HAS_BONUS_CORN'
p1296
I24
g1273
tp1297
a(S'HAS_BONUS_WHEAT'
p1298
I24
g1273
tp1299
a(S'HAS_BONUS_RICE'
p1300
I24
g1273
tp1301
a(S'HAS_BONUS_CLAM'
p1302
I24
g1273
tp1303
a(S'HAS_BONUS_CRAB'
p1304
I24
g1273
tp1305
a(S'HAS_BONUS_FISH'
p1306
I24
g1273
tp1307
a(S'HAS_BONUS_COW'
p1308
I24
g1273
tp1309
a(S'HAS_BONUS_PIG'
p1310
I24
g1273
tp1311
a(S'HAS_BONUS_SHEEP'
p1312
I24
g1273
tp1313
a(S'HAS_BONUS_BANANA'
p1314
I24
g1273
tp1315
a(S'HAS_BONUS_SUGAR'
p1316
I24
g1273
tp1317
a(S'HAS_BONUS_FUR'
p1318
I24
g1273
tp1319
a(S'HAS_BONUS_IVORY'
p1320
I24
g1273
tp1321
a(S'HAS_BONUS_PEARL'
p1322
I24
g1288
tp1323
a(S'HAS_BONUS_GEMS'
p1324
I24
g1273
tp1325
a(S'HAS_BONUS_GOLD'
p1326
I24
g1273
tp1327
a(S'HAS_BONUS_SILVER'
p1328
I24
g1273
tp1329
a(S'HAS_BONUS_SPICES'
p1330
I24
g1273
tp1331
a(S'HAS_BONUS_WINE'
p1332
I24
g1273
tp1333
a(S'HAS_BONUS_COFFEE'
p1334
I24
g1288
tp1335
a(S'HAS_BONUS_COTTON'
p1336
I24
g1288
tp1337
a(S'HAS_BONUS_DYE'
p1338
I24
g1273
tp1339
a(S'HAS_BONUS_INCENSE'
p1340
I24
g1273
tp1341
a(S'HAS_BONUS_SILK'
p1342
I24
g1273
tp1343
a(S'HAS_BONUS_TEA'
p1344
I24
g1288
tp1345
a(S'HAS_BONUS_TOBACCO'
p1346
I24
g1288
tp1347
a(S'HAS_BONUS_WHALE'
p1348
I24
g1273
tp1349
a(S'HAS_BONUS_HIT_FOOTBALL_EVENT'
p1350
I24
g1288
tp1351
a(S'HAS_BONUS_HIT_MOVIES'
p1352
I24
g1288
tp1353
a(S'HAS_BONUS_HIT_SINGLES'
p1354
I24
g1288
tp1355
asg1172
I00
sa(dp1356
g960
I00
sg961
I00
sg962
VResources - Strategic
p1357
sg964
(lp1358
(g966
I120
g967
tp1359
a(S'PRODUCTION'
p1360
I44
g326
tp1361
a(S'BONUS_ALUMINUM'
p1362
I80
g1178
tp1363
a(S'BONUS_COAL'
p1364
I80
g1178
tp1365
a(S'BONUS_COPPER'
p1366
I80
g1178
tp1367
a(S'BONUS_IRON'
p1368
I80
g1178
tp1369
a(S'BONUS_URANIUM'
p1370
I80
g1178
tp1371
a(S'BONUS_MARBLE'
p1372
I80
g1178
tp1373
a(S'BONUS_STONE'
p1374
I80
g1178
tp1375
a(S'BONUS_CAMEL'
p1376
I80
S'text'
p1377
tp1378
a(S'BONUS_HORSE'
p1379
I80
g1178
tp1380
a(S'BONUS_OIL'
p1381
I80
g1178
tp1382
a(S'PRODUCING'
p1383
I200
g1178
tp1384
a(S'PRODUCING_TURNS'
p1385
I44
g326
tp1386
asg1172
I00
sa(dp1387
g960
I00
sg961
I00
sg962
VResources - Health
p1388
sg964
(lp1389
(g966
I120
g967
tp1390
a(g590
I44
g326
tp1391
a(S'BONUS_DEER'
p1392
I60
g1178
tp1393
a(S'BONUS_CORN'
p1394
I60
g1178
tp1395
a(S'BONUS_WHEAT'
p1396
I60
g1178
tp1397
a(S'BONUS_RICE'
p1398
I60
g1178
tp1399
a(S'BONUS_CLAM'
p1400
I60
g1178
tp1401
a(S'BONUS_CRAB'
p1402
I60
g1178
tp1403
a(S'BONUS_FISH'
p1404
I60
g1178
tp1405
a(S'BONUS_COW'
p1406
I60
g1178
tp1407
a(S'BONUS_PIG'
p1408
I60
g1178
tp1409
a(S'BONUS_SHEEP'
p1410
I60
g1178
tp1411
a(S'BONUS_BANANA'
p1412
I60
g1178
tp1413
a(S'BONUS_SUGAR'
p1414
I60
g1178
tp1415
asg1172
I00
sa(dp1416
g960
I00
sg961
I00
sg962
VResources - Happiness
p1417
sg964
(lp1418
(g966
I120
g967
tp1419
a(S'HAPPY'
p1420
I44
g326
tp1421
a(S'BONUS_FUR'
p1422
I60
g1178
tp1423
a(S'BONUS_IVORY'
p1424
I60
g1178
tp1425
a(S'BONUS_PEARL'
p1426
I60
S'text'
p1427
tp1428
a(S'BONUS_GEMS'
p1429
I60
g1178
tp1430
a(S'BONUS_GOLD'
p1431
I60
g1178
tp1432
a(S'BONUS_SILVER'
p1433
I60
g1178
tp1434
a(S'BONUS_SPICES'
p1435
I60
g1178
tp1436
a(S'BONUS_WINE'
p1437
I60
g1178
tp1438
a(S'BONUS_COFFEE'
p1439
I60
g1427
tp1440
a(S'BONUS_COTTON'
p1441
I60
g1427
tp1442
a(S'BONUS_DYE'
p1443
I60
g1178
tp1444
a(S'BONUS_INCENSE'
p1445
I60
g1178
tp1446
a(S'BONUS_SILK'
p1447
I60
g1178
tp1448
a(S'BONUS_TEA'
p1449
I60
g1427
tp1450
a(S'BONUS_TOBACCO'
p1451
I60
g1427
tp1452
a(S'BONUS_WHALE'
p1453
I60
g1178
tp1454
a(S'BONUS_HIT_FOOTBALL_EVENT'
p1455
I60
g1427
tp1456
a(S'BONUS_HIT_MOVIES'
p1457
I60
g1427
tp1458
a(S'BONUS_HIT_SINGLES'
p1459
I60
g1427
tp1460
asg1172
I00
sa(dp1461
g960
I00
sg961
I00
sg962
VAdvisors
p1462
sg964
(lp1463
(g966
I120
g967
tp1464
a(S'ADVISE_CULTURE'
p1465
I130
S'text'
p1466
tp1467
a(S'ADVISE_MILITARY'
p1468
I130
g1466
tp1469
a(S'ADVISE_RELIGION'
p1470
I130
g1466
tp1471
a(S'ADVISE_RESEARCH'
p1472
I130
g1466
tp1473
a(S'ADVISE_SPACESHIP'
p1474
I130
S'text'
p1475
tp1476
a(S'ADVISE_NUTTY'
p1477
I130
g1466
tp1478
a(S'PRODUCING'
p1479
I200
g1466
tp1480
a(S'PRODUCING_TURNS'
p1481
I44
S'int'
p1482
tp1483
asg1172
I00
sas.